; ModuleID = '44/9.c'
source_filename = "44/9.c"
target datalayout = "e-m:e-p270:32:32-p271:32:32-p272:64:64-i64:64-f80:128-n8:16:32:64-S128"
target triple = "x86_64-pc-linux-gnu"

@.str = private unnamed_addr constant [3 x i8] c"%s\00", align 1
@.str.1 = private unnamed_addr constant [4 x i8] c"%d\0A\00", align 1

; Function Attrs: noinline nounwind uwtable
define dso_local i32 @main(i32 %0, i8** %1) #0 {
  %3 = alloca i32, align 4
  %4 = alloca i32, align 4
  %5 = alloca i8**, align 8
  %6 = alloca i32, align 4
  %7 = alloca [6 x [10 x i8]], align 16
  store i32 0, i32* %3, align 4
  store i32 %0, i32* %4, align 4
  store i8** %1, i8*** %5, align 8
  store i32 0, i32* %6, align 4
  br label %8

8:                                                ; preds = %17, %2
  %9 = load i32, i32* %6, align 4
  %10 = icmp slt i32 %9, 6
  br i1 %10, label %11, label %20

11:                                               ; preds = %8
  %12 = load i32, i32* %6, align 4
  %13 = sext i32 %12 to i64
  %14 = getelementptr inbounds [6 x [10 x i8]], [6 x [10 x i8]]* %7, i64 0, i64 %13
  %15 = getelementptr inbounds [10 x i8], [10 x i8]* %14, i64 0, i64 0
  %16 = call i32 (i8*, ...) @__isoc99_scanf(i8* getelementptr inbounds ([3 x i8], [3 x i8]* @.str, i64 0, i64 0), i8* %15)
  br label %17

17:                                               ; preds = %11
  %18 = load i32, i32* %6, align 4
  %19 = add nsw i32 %18, 1
  store i32 %19, i32* %6, align 4
  br label %8

20:                                               ; preds = %8
  store i32 0, i32* %6, align 4
  br label %21

21:                                               ; preds = %31, %20
  %22 = load i32, i32* %6, align 4
  %23 = icmp slt i32 %22, 6
  br i1 %23, label %24, label %34

24:                                               ; preds = %21
  %25 = load i32, i32* %6, align 4
  %26 = sext i32 %25 to i64
  %27 = getelementptr inbounds [6 x [10 x i8]], [6 x [10 x i8]]* %7, i64 0, i64 %26
  %28 = getelementptr inbounds [10 x i8], [10 x i8]* %27, i64 0, i64 0
  %29 = call i32 @reverse(i8* %28)
  %30 = call i32 (i8*, ...) @printf(i8* getelementptr inbounds ([4 x i8], [4 x i8]* @.str.1, i64 0, i64 0), i32 %29)
  br label %31

31:                                               ; preds = %24
  %32 = load i32, i32* %6, align 4
  %33 = add nsw i32 %32, 1
  store i32 %33, i32* %6, align 4
  br label %21

34:                                               ; preds = %21
  ret i32 0
}

declare dso_local i32 @__isoc99_scanf(i8*, ...) #1

declare dso_local i32 @printf(i8*, ...) #1

; Function Attrs: noinline nounwind uwtable
define dso_local i32 @reverse(i8* %0) #0 {
  %2 = alloca i8*, align 8
  %3 = alloca [10 x i8], align 1
  %4 = alloca [10 x i8], align 1
  %5 = alloca [10 x i8], align 1
  %6 = alloca i32, align 4
  %7 = alloca i32, align 4
  store i8* %0, i8** %2, align 8
  %8 = getelementptr inbounds [10 x i8], [10 x i8]* %3, i64 0, i64 0
  %9 = load i8*, i8** %2, align 8
  %10 = call i8* @strcpy(i8* %8, i8* %9) #4
  %11 = getelementptr inbounds [10 x i8], [10 x i8]* %3, i64 0, i64 0
  %12 = call i64 @strlen(i8* %11) #5
  %13 = trunc i64 %12 to i32
  store i32 %13, i32* %6, align 4
  store i32 0, i32* %7, align 4
  br label %14

14:                                               ; preds = %29, %1
  %15 = load i32, i32* %7, align 4
  %16 = load i32, i32* %6, align 4
  %17 = icmp slt i32 %15, %16
  br i1 %17, label %18, label %32

18:                                               ; preds = %14
  %19 = load i32, i32* %6, align 4
  %20 = load i32, i32* %7, align 4
  %21 = sub nsw i32 %19, %20
  %22 = sub nsw i32 %21, 1
  %23 = sext i32 %22 to i64
  %24 = getelementptr inbounds [10 x i8], [10 x i8]* %3, i64 0, i64 %23
  %25 = load i8, i8* %24, align 1
  %26 = load i32, i32* %7, align 4
  %27 = sext i32 %26 to i64
  %28 = getelementptr inbounds [10 x i8], [10 x i8]* %4, i64 0, i64 %27
  store i8 %25, i8* %28, align 1
  br label %29

29:                                               ; preds = %18
  %30 = load i32, i32* %7, align 4
  %31 = add nsw i32 %30, 1
  store i32 %31, i32* %7, align 4
  br label %14

32:                                               ; preds = %14
  %33 = load i32, i32* %6, align 4
  %34 = sext i32 %33 to i64
  %35 = getelementptr inbounds [10 x i8], [10 x i8]* %4, i64 0, i64 %34
  store i8 0, i8* %35, align 1
  %36 = load i32, i32* %6, align 4
  %37 = sub nsw i32 %36, 1
  %38 = sext i32 %37 to i64
  %39 = getelementptr inbounds [10 x i8], [10 x i8]* %4, i64 0, i64 %38
  %40 = load i8, i8* %39, align 1
  %41 = sext i8 %40 to i32
  %42 = icmp eq i32 %41, 45
  br i1 %42, label %43, label %65

43:                                               ; preds = %32
  %44 = getelementptr inbounds [10 x i8], [10 x i8]* %5, i64 0, i64 0
  store i8 45, i8* %44, align 1
  store i32 1, i32* %7, align 4
  br label %45

45:                                               ; preds = %58, %43
  %46 = load i32, i32* %7, align 4
  %47 = load i32, i32* %6, align 4
  %48 = icmp slt i32 %46, %47
  br i1 %48, label %49, label %61

49:                                               ; preds = %45
  %50 = load i32, i32* %7, align 4
  %51 = sub nsw i32 %50, 1
  %52 = sext i32 %51 to i64
  %53 = getelementptr inbounds [10 x i8], [10 x i8]* %4, i64 0, i64 %52
  %54 = load i8, i8* %53, align 1
  %55 = load i32, i32* %7, align 4
  %56 = sext i32 %55 to i64
  %57 = getelementptr inbounds [10 x i8], [10 x i8]* %5, i64 0, i64 %56
  store i8 %54, i8* %57, align 1
  br label %58

58:                                               ; preds = %49
  %59 = load i32, i32* %7, align 4
  %60 = add nsw i32 %59, 1
  store i32 %60, i32* %7, align 4
  br label %45

61:                                               ; preds = %45
  %62 = load i32, i32* %6, align 4
  %63 = sext i32 %62 to i64
  %64 = getelementptr inbounds [10 x i8], [10 x i8]* %5, i64 0, i64 %63
  store i8 0, i8* %64, align 1
  br label %69

65:                                               ; preds = %32
  %66 = getelementptr inbounds [10 x i8], [10 x i8]* %5, i64 0, i64 0
  %67 = getelementptr inbounds [10 x i8], [10 x i8]* %4, i64 0, i64 0
  %68 = call i8* @strcpy(i8* %66, i8* %67) #4
  br label %69

69:                                               ; preds = %65, %61
  %70 = getelementptr inbounds [10 x i8], [10 x i8]* %5, i64 0, i64 0
  %71 = call i32 @atoi(i8* %70) #5
  ret i32 %71
}

; Function Attrs: nounwind
declare dso_local i8* @strcpy(i8*, i8*) #2

; Function Attrs: nounwind readonly
declare dso_local i64 @strlen(i8*) #3

; Function Attrs: nounwind readonly
declare dso_local i32 @atoi(i8*) #3


!llvm.module.flags = !{!0}
!llvm.ident = !{!1}

!0 = !{i32 1, !"wchar_size", i32 4}
!1 = !{!"clang version 10.0.0-4ubuntu1 "}
